; Function Attrs: nounwind uwtable
define dso_local void @logicalrep_write_stream_stop(ptr noundef %0) local_unnamed_addr #0 {
  tail call void @enlargeStringInfo(ptr noundef %0, i32 noundef 1) #8
  tail call void @llvm.experimental.noalias.scope.decl(metadata !246)
  %2 = load ptr, ptr %0, align 8, !alias.scope !246
  %3 = getelementptr inbounds nuw i8, ptr %0, i64 8
  %4 = load i32, ptr %3, align 8, !alias.scope !246
  %5 = sext i32 %4 to i64
  %6 = getelementptr inbounds i8, ptr %2, i64 %5
  store i8 69, ptr %6, align 1, !noalias !246
  %7 = add i32 %4, 1
  store i32 %7, ptr %3, align 8, !alias.scope !246
  ret void
}